; Function Attrs: mustprogress nounwind uwtable
define void @_ZN7glslang17TParseContextBase13outputMessageERKNS_10TSourceLocEPKcS5_S5_NS_11TPrefixTypeEP13__va_list_tag(ptr noundef nonnull align 8 captures(none) dereferenceable(1280) %0, ptr noundef nonnull align 8 dereferenceable(24) %1, ptr noundef %2, ptr noundef %3, ptr noundef readonly captures(none) %4, i32 noundef %5, ptr noundef %6) unnamed_addr #0 align 2 {
  %8 = alloca [1224 x i8], align 16
  %9 = call i32 @vsnprintf(ptr noundef nonnull %8, i64 noundef 1224, ptr noundef %4, ptr noundef %6) #16
  %10 = getelementptr inbounds nuw i8, ptr %0, i64 16
  %11 = load ptr, ptr %10, align 8
  switch i32 %5, label %16 [
    i32 0, label %_ZN7glslang13TInfoSinkBase6prefixENS_11TPrefixTypeE.exit
    i32 1, label %.sink.split.i
    i32 2, label %12
    i32 3, label %13
    i32 4, label %14
    i32 5, label %15
  ]

12:                                               ; preds = %7
  br label %.sink.split.i

13:                                               ; preds = %7
  br label %.sink.split.i

14:                                               ; preds = %7
  br label %.sink.split.i

15:                                               ; preds = %7
  br label %.sink.split.i

16:                                               ; preds = %7
  br label %.sink.split.i

.sink.split.i:                                    ; preds = %16, %15, %14, %13, %12, %7
  %.str.44.sink.i = phi ptr [ @.str.44, %16 ], [ @.str.43, %15 ], [ @.str.42, %14 ], [ @.str.41, %13 ], [ @.str.40, %12 ], [ @.str.39, %7 ]
  tail call void @_ZN7glslang13TInfoSinkBase6appendEPKc(ptr noundef nonnull align 8 dereferenceable(48) %11, ptr noundef nonnull %.str.44.sink.i) #16
  %.pre = load ptr, ptr %10, align 8
  br label %_ZN7glslang13TInfoSinkBase6prefixENS_11TPrefixTypeE.exit

_ZN7glslang13TInfoSinkBase6prefixENS_11TPrefixTypeE.exit: ; preds = %7, %.sink.split.i
  %17 = phi ptr [ %11, %7 ], [ %.pre, %.sink.split.i ]
  %18 = getelementptr inbounds nuw i8, ptr %0, i64 208
  %19 = load i32, ptr %18, align 8
  %20 = and i32 %19, 65536
  %21 = icmp ne i32 %20, 0
  tail call void @_ZN7glslang13TInfoSinkBase8locationERKNS_10TSourceLocEb(ptr noundef nonnull align 8 dereferenceable(48) %17, ptr noundef nonnull align 8 dereferenceable(24) %1, i1 noundef zeroext %21)
  %22 = load ptr, ptr %10, align 8
  tail call void @_ZN7glslang13TInfoSinkBase6appendEPKc(ptr noundef nonnull align 8 dereferenceable(48) %22, ptr noundef nonnull @.str) #16
  tail call void @_ZN7glslang13TInfoSinkBase6appendEPKc(ptr noundef nonnull align 8 dereferenceable(48) %22, ptr noundef %3) #16
  tail call void @_ZN7glslang13TInfoSinkBase6appendEPKc(ptr noundef nonnull align 8 dereferenceable(48) %22, ptr noundef nonnull @.str.1) #16
  tail call void @_ZN7glslang13TInfoSinkBase6appendEPKc(ptr noundef nonnull align 8 dereferenceable(48) %22, ptr noundef %2) #16
  tail call void @_ZN7glslang13TInfoSinkBase6appendEPKc(ptr noundef nonnull align 8 dereferenceable(48) %22, ptr noundef nonnull @.str.2) #16
  call void @_ZN7glslang13TInfoSinkBase6appendEPKc(ptr noundef nonnull align 8 dereferenceable(48) %22, ptr noundef nonnull %8) #16
  call void @_ZN7glslang13TInfoSinkBase6appendEPKc(ptr noundef nonnull align 8 dereferenceable(48) %22, ptr noundef nonnull @.str.3) #16
  %23 = icmp eq i32 %5, 2
  br i1 %23, label %24, label %28

24:                                               ; preds = %_ZN7glslang13TInfoSinkBase6prefixENS_11TPrefixTypeE.exit
  %25 = getelementptr inbounds nuw i8, ptr %0, i64 212
  %26 = load i32, ptr %25, align 4
  %27 = add nsw i32 %26, 1
  store i32 %27, ptr %25, align 4
  br label %28

28:                                               ; preds = %24, %_ZN7glslang13TInfoSinkBase6prefixENS_11TPrefixTypeE.exit
  ret void
}